target datalayout = "e-m:e-p270:32:32-p271:32:32-p272:64:64-i64:64-i128:128-f80:128-n8:16:32:64-S128"
target triple = "x86_64-pc-linux-gnu"

%struct.Vec_Int_t_ = type { i32, i32, ptr }
%struct.Bmc_BCorePar_t_ = type { i32, i32, i32, ptr, ptr, i32 }
%struct.sat_solver_t = type { i32, i32, i32, i32, %struct.Sat_Mem_t_, i32, i32, ptr, ptr, i32, i32, i32, i32, i32, i64, i64, i64, ptr, ptr, i32, i32, %struct.veci_t, ptr, i32, ptr, ptr, ptr, ptr, ptr, ptr, ptr, ptr, %struct.veci_t, %struct.veci_t, %struct.veci_t, %struct.veci_t, ptr, %struct.veci_t, i32, i32, i32, double, double, i32, i32, i32, %struct.stats_t, i32, i32, i32, i32, i32, i64, i64, i64, %struct.veci_t, ptr, i32, i32, i32, %struct.veci_t, %struct.veci_t, i32, i32, i32, ptr, ptr, i32, ptr, i32, i32, %struct.veci_t, %struct.veci_t, %struct.veci_t, ptr, ptr, i32, ptr }
%struct.Sat_Mem_t_ = type { [2 x i32], [2 x i32], [2 x i32], [2 x i32], i32, i32, i32, i32, ptr }
%struct.stats_t = type { i32, i32, i32, i64, i64, i64, i64, i64, i64, i64 }
%struct.veci_t = type { i32, i32, ptr }
%struct.timespec = type { i64, i64 }

@.str.3 = private unnamed_addr constant [39 x i8] c"Timeout of conflict limit is reached.\0A\00", align 1
@.str.4 = private unnamed_addr constant [25 x i8] c"The BMC problem is SAT.\0A\00", align 1
@.str.5 = private unnamed_addr constant [53 x i8] c"SAT solver returned UNSAT after %7d conflicts.      \00", align 1
@.str.6 = private unnamed_addr constant [5 x i8] c"Time\00", align 1
@.str.7 = private unnamed_addr constant [55 x i8] c"UNSAT core contains %d (out of %d) learned clauses.   \00", align 1
@.str.8 = private unnamed_addr constant [3 x i8] c"wb\00", align 1
@stdout = external global ptr, align 8
@.str.9 = private unnamed_addr constant [5 x i8] c"%s =\00", align 1
@.str.10 = private unnamed_addr constant [11 x i8] c"%9.2f sec\0A\00", align 1

; Function Attrs: nounwind uwtable
define internal void @Vec_IntSort(ptr noundef %0, i32 noundef %1) #0 {
  %3 = alloca ptr, align 8
  %4 = alloca i32, align 4
  store ptr %0, ptr %3, align 8
  store i32 %1, ptr %4, align 4
  %5 = load i32, ptr %4, align 4
  %6 = icmp ne i32 %5, 0
  br i1 %6, label %7, label %15

7:                                                ; preds = %2
  %8 = load ptr, ptr %3, align 8
  %9 = getelementptr inbounds %struct.Vec_Int_t_, ptr %8, i32 0, i32 2
  %10 = load ptr, ptr %9, align 8
  %11 = load ptr, ptr %3, align 8
  %12 = getelementptr inbounds %struct.Vec_Int_t_, ptr %11, i32 0, i32 1
  %13 = load i32, ptr %12, align 4
  %14 = sext i32 %13 to i64
  call void @qsort(ptr noundef %10, i64 noundef %14, i64 noundef 4, ptr noundef @Vec_IntSortCompare2)
  br label %23

15:                                               ; preds = %2
  %16 = load ptr, ptr %3, align 8
  %17 = getelementptr inbounds %struct.Vec_Int_t_, ptr %16, i32 0, i32 2
  %18 = load ptr, ptr %17, align 8
  %19 = load ptr, ptr %3, align 8
  %20 = getelementptr inbounds %struct.Vec_Int_t_, ptr %19, i32 0, i32 1
  %21 = load i32, ptr %20, align 4
  %22 = sext i32 %21 to i64
  call void @qsort(ptr noundef %18, i64 noundef %22, i64 noundef 4, ptr noundef @Vec_IntSortCompare1)
  br label %23

23:                                               ; preds = %15, %7
  ret void
}

; Function Attrs: nounwind uwtable
define internal void @Abc_PrintTime(i32 noundef %0, ptr noundef %1, i64 noundef %2) #0 {
  %4 = alloca i32, align 4
  %5 = alloca ptr, align 8
  %6 = alloca i64, align 8
  store i32 %0, ptr %4, align 4
  store ptr %1, ptr %5, align 8
  store i64 %2, ptr %6, align 8
  %7 = load ptr, ptr %5, align 8
  call void (i32, ptr, ...) @Abc_Print(i32 noundef 1, ptr noundef @.str.9, ptr noundef %7)
  %8 = load i64, ptr %6, align 8
  %9 = sitofp i64 %8 to double
  %10 = fmul double 1.000000e+00, %9
  %11 = fdiv double %10, 1.000000e+06
  call void (i32, ptr, ...) @Abc_Print(i32 noundef 1, ptr noundef @.str.10, double noundef %11)
  ret void
}

; Function Attrs: nounwind uwtable
define internal void @Vec_IntFree(ptr noundef %0) #0 {
  %2 = alloca ptr, align 8
  store ptr %0, ptr %2, align 8
  %3 = load ptr, ptr %2, align 8
  %4 = getelementptr inbounds %struct.Vec_Int_t_, ptr %3, i32 0, i32 2
  %5 = load ptr, ptr %4, align 8
  %6 = icmp ne ptr %5, null
  br i1 %6, label %7, label %13

7:                                                ; preds = %1
  %8 = load ptr, ptr %2, align 8
  %9 = getelementptr inbounds %struct.Vec_Int_t_, ptr %8, i32 0, i32 2
  %10 = load ptr, ptr %9, align 8
  call void @free(ptr noundef %10) #8
  %11 = load ptr, ptr %2, align 8
  %12 = getelementptr inbounds %struct.Vec_Int_t_, ptr %11, i32 0, i32 2
  store ptr null, ptr %12, align 8
  br label %14

13:                                               ; preds = %1
  br label %14

14:                                               ; preds = %13, %7
  %15 = load ptr, ptr %2, align 8
  %16 = icmp ne ptr %15, null
  br i1 %16, label %17, label %19

17:                                               ; preds = %14
  %18 = load ptr, ptr %2, align 8
  call void @free(ptr noundef %18) #8
  store ptr null, ptr %2, align 8
  br label %20

19:                                               ; preds = %14
  br label %20

20:                                               ; preds = %19, %17
  ret void
}

; Function Attrs: nounwind uwtable
define internal ptr @Vec_IntReleaseArray(ptr noundef %0) #0 {
  %2 = alloca ptr, align 8
  %3 = alloca ptr, align 8
  store ptr %0, ptr %2, align 8
  %4 = load ptr, ptr %2, align 8
  %5 = getelementptr inbounds %struct.Vec_Int_t_, ptr %4, i32 0, i32 2
  %6 = load ptr, ptr %5, align 8
  store ptr %6, ptr %3, align 8
  %7 = load ptr, ptr %2, align 8
  %8 = getelementptr inbounds %struct.Vec_Int_t_, ptr %7, i32 0, i32 0
  store i32 0, ptr %8, align 8
  %9 = load ptr, ptr %2, align 8
  %10 = getelementptr inbounds %struct.Vec_Int_t_, ptr %9, i32 0, i32 1
  store i32 0, ptr %10, align 4
  %11 = load ptr, ptr %2, align 8
  %12 = getelementptr inbounds %struct.Vec_Int_t_, ptr %11, i32 0, i32 2
  store ptr null, ptr %12, align 8
  %13 = load ptr, ptr %3, align 8
  ret ptr %13
}

; Function Attrs: nounwind uwtable
define internal void @sat_solver_set_pivot_variables(ptr noundef %0, ptr noundef %1, i32 noundef %2) #0 {
  %4 = alloca ptr, align 8
  %5 = alloca ptr, align 8
  %6 = alloca i32, align 4
  store ptr %0, ptr %4, align 8
  store ptr %1, ptr %5, align 8
  store i32 %2, ptr %6, align 4
  %7 = load i32, ptr %6, align 4
  %8 = load ptr, ptr %4, align 8
  %9 = getelementptr inbounds %struct.sat_solver_t, ptr %8, i32 0, i32 61
  %10 = getelementptr inbounds %struct.veci_t, ptr %9, i32 0, i32 0
  store i32 %7, ptr %10, align 8
  %11 = load i32, ptr %6, align 4
  %12 = load ptr, ptr %4, align 8
  %13 = getelementptr inbounds %struct.sat_solver_t, ptr %12, i32 0, i32 61
  %14 = getelementptr inbounds %struct.veci_t, ptr %13, i32 0, i32 1
  store i32 %11, ptr %14, align 4
  %15 = load ptr, ptr %5, align 8
  %16 = load ptr, ptr %4, align 8
  %17 = getelementptr inbounds %struct.sat_solver_t, ptr %16, i32 0, i32 61
  %18 = getelementptr inbounds %struct.veci_t, ptr %17, i32 0, i32 2
  store ptr %15, ptr %18, align 8
  ret void
}

; Function Attrs: nounwind uwtable
define internal i32 @Vec_IntSize(ptr noundef %0) #0 {
  %2 = alloca ptr, align 8
  store ptr %0, ptr %2, align 8
  %3 = load ptr, ptr %2, align 8
  %4 = getelementptr inbounds %struct.Vec_Int_t_, ptr %3, i32 0, i32 1
  %5 = load i32, ptr %4, align 4
  ret i32 %5
}

; Function Attrs: nounwind uwtable
define internal ptr @Vec_IntArray(ptr noundef %0) #0 {
  %2 = alloca ptr, align 8
  store ptr %0, ptr %2, align 8
  %3 = load ptr, ptr %2, align 8
  %4 = getelementptr inbounds %struct.Vec_Int_t_, ptr %3, i32 0, i32 2
  %5 = load ptr, ptr %4, align 8
  ret ptr %5
}

; Function Attrs: nounwind uwtable
define internal i64 @sat_solver_set_runtime_limit(ptr noundef %0, i64 noundef %1) #0 {
  %3 = alloca ptr, align 8
  %4 = alloca i64, align 8
  %5 = alloca i64, align 8
  store ptr %0, ptr %3, align 8
  store i64 %1, ptr %4, align 8
  %6 = load ptr, ptr %3, align 8
  %7 = getelementptr inbounds %struct.sat_solver_t, ptr %6, i32 0, i32 54
  %8 = load i64, ptr %7, align 8
  store i64 %8, ptr %5, align 8
  %9 = load i64, ptr %4, align 8
  %10 = load ptr, ptr %3, align 8
  %11 = getelementptr inbounds %struct.sat_solver_t, ptr %10, i32 0, i32 54
  store i64 %9, ptr %11, align 8
  %12 = load i64, ptr %5, align 8
  ret i64 %12
}

; Function Attrs: nounwind uwtable
define internal i64 @Abc_Clock() #0 {
  %1 = alloca i64, align 8
  %2 = alloca %struct.timespec, align 8
  %3 = alloca i64, align 8
  %4 = call i32 @clock_gettime(i32 noundef 1, ptr noundef %2) #8
  %5 = icmp slt i32 %4, 0
  br i1 %5, label %6, label %7

6:                                                ; preds = %0
  store i64 -1, ptr %1, align 8
  br label %18

7:                                                ; preds = %0
  %8 = getelementptr inbounds %struct.timespec, ptr %2, i32 0, i32 0
  %9 = load i64, ptr %8, align 8
  %10 = mul nsw i64 %9, 1000000
  store i64 %10, ptr %3, align 8
  %11 = getelementptr inbounds %struct.timespec, ptr %2, i32 0, i32 1
  %12 = load i64, ptr %11, align 8
  %13 = mul nsw i64 %12, 1000000
  %14 = sdiv i64 %13, 1000000000
  %15 = load i64, ptr %3, align 8
  %16 = add nsw i64 %15, %14
  store i64 %16, ptr %3, align 8
  %17 = load i64, ptr %3, align 8
  store i64 %17, ptr %1, align 8
  br label %18

18:                                               ; preds = %7, %6
  %19 = load i64, ptr %1, align 8
  ret i64 %19
}

; Function Attrs: nounwind uwtable
define void @Bmc_ManBCorePerform(ptr noundef %0, ptr noundef %1) #0 {
  %3 = alloca ptr, align 8
  %4 = alloca ptr, align 8
  %5 = alloca i64, align 8
  %6 = alloca ptr, align 8
  %7 = alloca ptr, align 8
  %8 = alloca ptr, align 8
  %9 = alloca ptr, align 8
  %10 = alloca ptr, align 8
  %11 = alloca ptr, align 8
  %12 = alloca i32, align 4
  %13 = alloca ptr, align 8
  store ptr %0, ptr %3, align 8
  store ptr %1, ptr %4, align 8
  %14 = call i64 @clock() #8
  store i64 %14, ptr %5, align 8
  %15 = call ptr @sat_solver_new()
  store ptr %15, ptr %9, align 8
  %16 = load ptr, ptr %9, align 8
  call void @sat_solver_store_alloc(ptr noundef %16)
  %17 = load ptr, ptr %9, align 8
  call void @sat_solver_setnvars(ptr noundef %17, i32 noundef 1000)
  %18 = load ptr, ptr %9, align 8
  %19 = load ptr, ptr %4, align 8
  %20 = getelementptr inbounds %struct.Bmc_BCorePar_t_, ptr %19, i32 0, i32 2
  %21 = load i32, ptr %20, align 8
  %22 = icmp ne i32 %21, 0
  br i1 %22, label %23, label %31

23:                                               ; preds = %2
  %24 = load ptr, ptr %4, align 8
  %25 = getelementptr inbounds %struct.Bmc_BCorePar_t_, ptr %24, i32 0, i32 2
  %26 = load i32, ptr %25, align 8
  %27 = sext i32 %26 to i64
  %28 = mul nsw i64 %27, 1000000
  %29 = call i64 @Abc_Clock()
  %30 = add nsw i64 %28, %29
  br label %32

31:                                               ; preds = %2
  br label %32

32:                                               ; preds = %31, %23
  %33 = phi i64 [ %30, %23 ], [ 0, %31 ]
  %34 = call i64 @sat_solver_set_runtime_limit(ptr noundef %18, i64 noundef %33)
  %35 = load ptr, ptr %3, align 8
  %36 = load ptr, ptr %4, align 8
  %37 = getelementptr inbounds %struct.Bmc_BCorePar_t_, ptr %36, i32 0, i32 0
  %38 = load i32, ptr %37, align 8
  %39 = load ptr, ptr %4, align 8
  %40 = getelementptr inbounds %struct.Bmc_BCorePar_t_, ptr %39, i32 0, i32 1
  %41 = load i32, ptr %40, align 4
  %42 = load ptr, ptr %9, align 8
  %43 = call ptr @Bmc_ManBCoreCollect(ptr noundef %35, i32 noundef %38, i32 noundef %41, ptr noundef %42)
  store ptr %43, ptr %7, align 8
  %44 = load ptr, ptr %9, align 8
  call void @sat_solver_store_mark_roots(ptr noundef %44)
  %45 = load ptr, ptr %4, align 8
  %46 = getelementptr inbounds %struct.Bmc_BCorePar_t_, ptr %45, i32 0, i32 3
  %47 = load ptr, ptr %46, align 8
  %48 = icmp ne ptr %47, null
  br i1 %48, label %49, label %64

49:                                               ; preds = %32
  %50 = load ptr, ptr %3, align 8
  %51 = load ptr, ptr %4, align 8
  %52 = getelementptr inbounds %struct.Bmc_BCorePar_t_, ptr %51, i32 0, i32 3
  %53 = load ptr, ptr %52, align 8
  %54 = load ptr, ptr %7, align 8
  %55 = call ptr @Bmc_ManBCoreCollectPivots(ptr noundef %50, ptr noundef %53, ptr noundef %54)
  store ptr %55, ptr %13, align 8
  %56 = load ptr, ptr %9, align 8
  %57 = load ptr, ptr %13, align 8
  %58 = call ptr @Vec_IntArray(ptr noundef %57)
  %59 = load ptr, ptr %13, align 8
  %60 = call i32 @Vec_IntSize(ptr noundef %59)
  call void @sat_solver_set_pivot_variables(ptr noundef %56, ptr noundef %58, i32 noundef %60)
  %61 = load ptr, ptr %13, align 8
  %62 = call ptr @Vec_IntReleaseArray(ptr noundef %61)
  %63 = load ptr, ptr %13, align 8
  call void @Vec_IntFree(ptr noundef %63)
  br label %64

64:                                               ; preds = %49, %32
  %65 = load ptr, ptr %9, align 8
  %66 = call i32 @sat_solver_solve(ptr noundef %65, ptr noundef null, ptr noundef null, i64 noundef 0, i64 noundef 0, i64 noundef 0, i64 noundef 0)
  store i32 %66, ptr %12, align 4
  %67 = load i32, ptr %12, align 4
  %68 = icmp eq i32 %67, 0
  br i1 %68, label %69, label %73

69:                                               ; preds = %64
  %70 = load ptr, ptr %7, align 8
  call void @Vec_IntFree(ptr noundef %70)
  %71 = load ptr, ptr %9, align 8
  call void @sat_solver_delete(ptr noundef %71)
  %72 = call i32 (ptr, ...) @printf(ptr noundef @.str.3)
  br label %150

73:                                               ; preds = %64
  %74 = load i32, ptr %12, align 4
  %75 = icmp eq i32 %74, 1
  br i1 %75, label %76, label %80

76:                                               ; preds = %73
  %77 = load ptr, ptr %7, align 8
  call void @Vec_IntFree(ptr noundef %77)
  %78 = load ptr, ptr %9, align 8
  call void @sat_solver_delete(ptr noundef %78)
  %79 = call i32 (ptr, ...) @printf(ptr noundef @.str.4)
  br label %150

80:                                               ; preds = %73
  %81 = load ptr, ptr %4, align 8
  %82 = getelementptr inbounds %struct.Bmc_BCorePar_t_, ptr %81, i32 0, i32 5
  %83 = load i32, ptr %82, align 8
  %84 = icmp ne i32 %83, 0
  br i1 %84, label %85, label %95

85:                                               ; preds = %80
  %86 = load ptr, ptr %9, align 8
  %87 = getelementptr inbounds %struct.sat_solver_t, ptr %86, i32 0, i32 46
  %88 = getelementptr inbounds %struct.stats_t, ptr %87, i32 0, i32 6
  %89 = load i64, ptr %88, align 8
  %90 = trunc i64 %89 to i32
  %91 = call i32 (ptr, ...) @printf(ptr noundef @.str.5, i32 noundef %90)
  %92 = call i64 @clock() #8
  %93 = load i64, ptr %5, align 8
  %94 = sub nsw i64 %92, %93
  call void @Abc_PrintTime(i32 noundef 1, ptr noundef @.str.6, i64 noundef %94)
  br label %95

95:                                               ; preds = %85, %80
  %96 = load ptr, ptr %9, align 8
  %97 = call ptr @sat_solver_store_release(ptr noundef %96)
  store ptr %97, ptr %11, align 8
  %98 = call i64 @clock() #8
  store i64 %98, ptr %5, align 8
  %99 = call ptr (...) @Intp_ManAlloc()
  store ptr %99, ptr %6, align 8
  %100 = load ptr, ptr %6, align 8
  %101 = load ptr, ptr %11, align 8
  %102 = load ptr, ptr %4, align 8
  %103 = getelementptr inbounds %struct.Bmc_BCorePar_t_, ptr %102, i32 0, i32 5
  %104 = load i32, ptr %103, align 8
  %105 = call ptr @Intp_ManUnsatCore(ptr noundef %100, ptr noundef %101, i32 noundef 1, i32 noundef %104)
  store ptr %105, ptr %8, align 8
  %106 = load ptr, ptr %6, align 8
  call void @Intp_ManFree(ptr noundef %106)
  %107 = load ptr, ptr %4, align 8
  %108 = getelementptr inbounds %struct.Bmc_BCorePar_t_, ptr %107, i32 0, i32 5
  %109 = load i32, ptr %108, align 8
  %110 = icmp ne i32 %109, 0
  br i1 %110, label %111, label %120

111:                                              ; preds = %95
  %112 = load ptr, ptr %8, align 8
  %113 = call i32 @Vec_IntSize(ptr noundef %112)
  %114 = load ptr, ptr %9, align 8
  %115 = call i32 @sat_solver_nconflicts(ptr noundef %114)
  %116 = call i32 (ptr, ...) @printf(ptr noundef @.str.7, i32 noundef %113, i32 noundef %115)
  %117 = call i64 @clock() #8
  %118 = load i64, ptr %5, align 8
  %119 = sub nsw i64 %117, %118
  call void @Abc_PrintTime(i32 noundef 1, ptr noundef @.str.6, i64 noundef %119)
  br label %120

120:                                              ; preds = %111, %95
  %121 = load ptr, ptr %8, align 8
  call void @Vec_IntSort(ptr noundef %121, i32 noundef 0)
  %122 = load ptr, ptr %4, align 8
  %123 = getelementptr inbounds %struct.Bmc_BCorePar_t_, ptr %122, i32 0, i32 4
  %124 = load ptr, ptr %123, align 8
  %125 = icmp ne ptr %124, null
  br i1 %125, label %126, label %131

126:                                              ; preds = %120
  %127 = load ptr, ptr %4, align 8
  %128 = getelementptr inbounds %struct.Bmc_BCorePar_t_, ptr %127, i32 0, i32 4
  %129 = load ptr, ptr %128, align 8
  %130 = call noalias ptr @fopen(ptr noundef %129, ptr noundef @.str.8)
  br label %133

131:                                              ; preds = %120
  %132 = load ptr, ptr @stdout, align 8
  br label %133

133:                                              ; preds = %131, %126
  %134 = phi ptr [ %130, %126 ], [ %132, %131 ]
  store ptr %134, ptr %10, align 8
  %135 = load ptr, ptr %10, align 8
  %136 = load ptr, ptr %11, align 8
  %137 = load ptr, ptr %8, align 8
  %138 = load ptr, ptr %7, align 8
  call void @Intp_ManUnsatCorePrintForBmc(ptr noundef %135, ptr noundef %136, ptr noundef %137, ptr noundef %138)
  %139 = load ptr, ptr %10, align 8
  %140 = load ptr, ptr @stdout, align 8
  %141 = icmp ne ptr %139, %140
  br i1 %141, label %142, label %145

142:                                              ; preds = %133
  %143 = load ptr, ptr %10, align 8
  %144 = call i32 @fclose(ptr noundef %143)
  br label %145

145:                                              ; preds = %142, %133
  %146 = load ptr, ptr %11, align 8
  call void @Sto_ManFree(ptr noundef %146)
  %147 = load ptr, ptr %7, align 8
  call void @Vec_IntFree(ptr noundef %147)
  %148 = load ptr, ptr %8, align 8
  call void @Vec_IntFree(ptr noundef %148)
  %149 = load ptr, ptr %9, align 8
  call void @sat_solver_delete(ptr noundef %149)
  br label %150

150:                                              ; preds = %145, %76, %69
  ret void
}