; Function Attrs: nounwind uwtable
define void @Bmc_ManBCorePerform(ptr noundef %0, ptr noundef readonly captures(none) %1) local_unnamed_addr #0 {
  %3 = alloca %struct.timespec, align 8
  %4 = tail call i64 @clock() #16
  %5 = tail call ptr @sat_solver_new() #16
  tail call void @sat_solver_store_alloc(ptr noundef %5) #16
  tail call void @sat_solver_setnvars(ptr noundef %5, i32 noundef 1000) #16
  %6 = getelementptr inbounds nuw i8, ptr %1, i64 8
  %7 = load i32, ptr %6, align 8
  %.not = icmp eq i32 %7, 0
  br i1 %.not, label %21, label %8

8:                                                ; preds = %2
  %9 = sext i32 %7 to i64
  %10 = mul nsw i64 %9, 1000000
  call void @llvm.lifetime.start.p0(i64 16, ptr nonnull %3)
  %11 = call i32 @clock_gettime(i32 noundef 1, ptr noundef nonnull %3) #16
  %12 = icmp slt i32 %11, 0
  br i1 %12, label %Abc_Clock.exit, label %13

13:                                               ; preds = %8
  %14 = load i64, ptr %3, align 8
  %15 = mul nsw i64 %14, 1000000
  %16 = getelementptr inbounds nuw i8, ptr %3, i64 8
  %17 = load i64, ptr %16, align 8
  %18 = sdiv i64 %17, 1000
  %19 = add nsw i64 %18, %15
  br label %Abc_Clock.exit

Abc_Clock.exit:                                   ; preds = %8, %13
  %.0.i = phi i64 [ %19, %13 ], [ -1, %8 ]
  call void @llvm.lifetime.end.p0(i64 16, ptr nonnull %3)
  %20 = add nsw i64 %.0.i, %10
  br label %21

21:                                               ; preds = %2, %Abc_Clock.exit
  %22 = phi i64 [ %20, %Abc_Clock.exit ], [ 0, %2 ]
  %23 = getelementptr inbounds nuw i8, ptr %5, i64 512
  store i64 %22, ptr %23, align 8
  %24 = load i32, ptr %1, align 8
  %25 = getelementptr inbounds nuw i8, ptr %1, i64 4
  %26 = load i32, ptr %25, align 4
  %27 = call ptr @Bmc_ManBCoreCollect(ptr noundef %0, i32 noundef %24, i32 noundef %26, ptr noundef %5)
  call void @sat_solver_store_mark_roots(ptr noundef %5) #16
  %28 = getelementptr inbounds nuw i8, ptr %1, i64 16
  %29 = load ptr, ptr %28, align 8
  %.not54 = icmp eq ptr %29, null
  br i1 %.not54, label %36, label %Vec_IntFree.exit

Vec_IntFree.exit:                                 ; preds = %21
  %30 = call ptr @Bmc_ManBCoreCollectPivots(ptr noundef %0, ptr noundef nonnull %29, ptr noundef %27)
  %31 = getelementptr i8, ptr %30, i64 8
  %.val61 = load ptr, ptr %31, align 8
  %32 = getelementptr i8, ptr %30, i64 4
  %.val60 = load i32, ptr %32, align 4
  %33 = getelementptr inbounds nuw i8, ptr %5, i64 576
  store i32 %.val60, ptr %33, align 8
  %34 = getelementptr inbounds nuw i8, ptr %5, i64 580
  store i32 %.val60, ptr %34, align 4
  %35 = getelementptr inbounds nuw i8, ptr %5, i64 584
  store ptr %.val61, ptr %35, align 8
  call void @free(ptr noundef nonnull %30) #16
  br label %36

36:                                               ; preds = %Vec_IntFree.exit, %21
  %37 = call i32 @sat_solver_solve(ptr noundef nonnull %5, ptr noundef null, ptr noundef null, i64 noundef 0, i64 noundef 0, i64 noundef 0, i64 noundef 0) #16
  switch i32 %37, label %46 [
    i32 0, label %38
    i32 1, label %42
  ]

38:                                               ; preds = %36
  %39 = getelementptr inbounds nuw i8, ptr %27, i64 8
  %40 = load ptr, ptr %39, align 8
  %.not.i64 = icmp eq ptr %40, null
  br i1 %.not.i64, label %Vec_IntFree.exit65, label %41

41:                                               ; preds = %38
  call void @free(ptr noundef nonnull %40) #16
  br label %Vec_IntFree.exit65

Vec_IntFree.exit65:                               ; preds = %38, %41
  call void @free(ptr noundef nonnull %27) #16
  call void @sat_solver_delete(ptr noundef nonnull %5) #16
  %puts59 = call i32 @puts(ptr nonnull dereferenceable(1) @str.1)
  br label %94

42:                                               ; preds = %36
  %43 = getelementptr inbounds nuw i8, ptr %27, i64 8
  %44 = load ptr, ptr %43, align 8
  %.not.i66 = icmp eq ptr %44, null
  br i1 %.not.i66, label %Vec_IntFree.exit67, label %45

45:                                               ; preds = %42
  call void @free(ptr noundef nonnull %44) #16
  br label %Vec_IntFree.exit67

Vec_IntFree.exit67:                               ; preds = %42, %45
  call void @free(ptr noundef nonnull %27) #16
  call void @sat_solver_delete(ptr noundef nonnull %5) #16
  %puts = call i32 @puts(ptr nonnull dereferenceable(1) @str)
  br label %94

46:                                               ; preds = %36
  %47 = getelementptr inbounds nuw i8, ptr %1, i64 32
  %48 = load i32, ptr %47, align 8
  %.not55 = icmp eq i32 %48, 0
  br i1 %.not55, label %58, label %49

49:                                               ; preds = %46
  %50 = getelementptr inbounds nuw i8, ptr %5, i64 440
  %51 = load i64, ptr %50, align 8
  %52 = trunc i64 %51 to i32
  %53 = call i32 (ptr, ...) @printf(ptr noundef nonnull dereferenceable(1) @.str.5, i32 noundef %52)
  %54 = call i64 @clock() #16
  %55 = sub nsw i64 %54, %4
  call void (i32, ptr, ...) @Abc_Print(i32 poison, ptr noundef nonnull @.str.9, ptr noundef nonnull @.str.6)
  %56 = sitofp i64 %55 to double
  %57 = fdiv double %56, 1.000000e+06
  call void (i32, ptr, ...) @Abc_Print(i32 poison, ptr noundef nonnull @.str.10, double noundef %57)
  br label %58

58:                                               ; preds = %49, %46
  %59 = call ptr @sat_solver_store_release(ptr noundef nonnull %5) #16
  %60 = call i64 @clock() #16
  %61 = call ptr (...) @Intp_ManAlloc() #16
  %62 = load i32, ptr %47, align 8
  %63 = call ptr @Intp_ManUnsatCore(ptr noundef %61, ptr noundef %59, i32 noundef 1, i32 noundef %62) #16
  call void @Intp_ManFree(ptr noundef %61) #16
  %64 = load i32, ptr %47, align 8
  %.not56 = icmp eq i32 %64, 0
  br i1 %.not56, label %73, label %65

65:                                               ; preds = %58
  %66 = getelementptr i8, ptr %63, i64 4
  %.val = load i32, ptr %66, align 4
  %67 = call i32 @sat_solver_nconflicts(ptr noundef nonnull %5) #16
  %68 = call i32 (ptr, ...) @printf(ptr noundef nonnull dereferenceable(1) @.str.7, i32 noundef %.val, i32 noundef %67)
  %69 = call i64 @clock() #16
  %70 = sub nsw i64 %69, %60
  call void (i32, ptr, ...) @Abc_Print(i32 poison, ptr noundef nonnull @.str.9, ptr noundef nonnull @.str.6)
  %71 = sitofp i64 %70 to double
  %72 = fdiv double %71, 1.000000e+06
  call void (i32, ptr, ...) @Abc_Print(i32 poison, ptr noundef nonnull @.str.10, double noundef %72)
  br label %73

73:                                               ; preds = %65, %58
  %74 = getelementptr i8, ptr %63, i64 4
  %.val62 = load i32, ptr %74, align 4
  %75 = getelementptr i8, ptr %63, i64 8
  %.val63 = load ptr, ptr %75, align 8
  %76 = sext i32 %.val62 to i64
  call void @qsort(ptr noundef %.val63, i64 noundef %76, i64 noundef 4, ptr noundef nonnull @Vec_IntSortCompare1) #16
  %77 = getelementptr inbounds nuw i8, ptr %1, i64 24
  %78 = load ptr, ptr %77, align 8
  %.not57 = icmp eq ptr %78, null
  br i1 %.not57, label %81, label %79

79:                                               ; preds = %73
  %80 = call noalias ptr @fopen(ptr noundef nonnull %78, ptr noundef nonnull @.str.8)
  br label %83

81:                                               ; preds = %73
  %82 = load ptr, ptr @stdout, align 8
  br label %83

83:                                               ; preds = %81, %79
  %84 = phi ptr [ %80, %79 ], [ %82, %81 ]
  call void @Intp_ManUnsatCorePrintForBmc(ptr noundef %84, ptr noundef %59, ptr noundef nonnull %63, ptr noundef %27) #16
  %85 = load ptr, ptr @stdout, align 8
  %.not58 = icmp eq ptr %84, %85
  br i1 %.not58, label %88, label %86

86:                                               ; preds = %83
  %87 = call i32 @fclose(ptr noundef %84)
  br label %88

88:                                               ; preds = %86, %83
  call void @Sto_ManFree(ptr noundef %59) #16
  %89 = getelementptr inbounds nuw i8, ptr %27, i64 8
  %90 = load ptr, ptr %89, align 8
  %.not.i68 = icmp eq ptr %90, null
  br i1 %.not.i68, label %Vec_IntFree.exit69, label %91

91:                                               ; preds = %88
  call void @free(ptr noundef nonnull %90) #16
  br label %Vec_IntFree.exit69

Vec_IntFree.exit69:                               ; preds = %88, %91
  call void @free(ptr noundef nonnull %27) #16
  %92 = load ptr, ptr %75, align 8
  %.not.i70 = icmp eq ptr %92, null
  br i1 %.not.i70, label %Vec_IntFree.exit71, label %93

93:                                               ; preds = %Vec_IntFree.exit69
  call void @free(ptr noundef nonnull %92) #16
  br label %Vec_IntFree.exit71

Vec_IntFree.exit71:                               ; preds = %Vec_IntFree.exit69, %93
  call void @free(ptr noundef nonnull %63) #16
  call void @sat_solver_delete(ptr noundef nonnull %5) #16
  br label %94

94:                                               ; preds = %Vec_IntFree.exit71, %Vec_IntFree.exit67, %Vec_IntFree.exit65
  ret void
}